target datalayout = "e-m:e-p270:32:32-p271:32:32-p272:64:64-i64:64-i128:128-f80:128-n8:16:32:64-S128"
target triple = "x86_64-pc-linux-gnu"

%"class.cv::bioinspired::RetinaFilter" = type <{ i8, i8, [2 x i8], i32, i32, [4 x i8], %"class.std::valarray", %"class.std::valarray", %"class.cv::bioinspired::BasicRetinaFilter", %"class.cv::bioinspired::ParvoRetinaFilter", %"class.cv::bioinspired::MagnoRetinaFilter", %"class.cv::bioinspired::RetinaColor", ptr, i8, i8, i8, i8, float, i8, [7 x i8] }>
%"class.std::valarray" = type { i64, ptr }
%"class.cv::bioinspired::BasicRetinaFilter" = type { %"class.cv::bioinspired::TemplateBuffer", %"class.std::valarray", i32, i32, %"class.std::valarray", %"class.std::valarray", %"class.std::valarray", float, float, float, float, float, float, float, float }
%"class.cv::bioinspired::TemplateBuffer" = type { ptr, %"class.std::valarray", i64, i64, i64, i64, i64 }
%"class.cv::bioinspired::ParvoRetinaFilter" = type { ptr, %"class.cv::bioinspired::BasicRetinaFilter", %"class.std::valarray", %"class.std::valarray", %"class.std::valarray", %"class.std::valarray", %"class.std::valarray", %"class.std::valarray", %"class.std::valarray", ptr, ptr }
%"class.cv::bioinspired::MagnoRetinaFilter" = type <{ ptr, %"class.cv::bioinspired::BasicRetinaFilter", %"class.std::valarray", %"class.std::valarray", %"class.std::valarray", %"class.std::valarray", %"class.std::valarray", %"class.std::valarray", %"class.std::valarray", %"class.std::valarray", ptr, ptr, float, [4 x i8] }>
%"class.cv::bioinspired::RetinaColor" = type <{ ptr, %"class.cv::bioinspired::BasicRetinaFilter", i32, i8, [3 x i8], float, [4 x i8], ptr, ptr, %"class.std::valarray.0", %"class.std::valarray", %"class.std::valarray", %"class.std::valarray", %"class.std::valarray", %"class.std::valarray", %"class.std::valarray", %"class.std::valarray", float, float, float, i8, [3 x i8] }>
%"class.std::valarray.0" = type { i64, ptr }

; Function Attrs: inlinehint mustprogress nounwind uwtable
define linkonce_odr hidden noundef i32 @_ZN2cv11bioinspired14TemplateBufferIfE11getNBpixelsEv(ptr noundef nonnull align 8 dereferenceable(64) %0) #6 comdat align 2 {
  %2 = alloca ptr, align 8
  store ptr %0, ptr %2, align 8, !tbaa !82
  %3 = load ptr, ptr %2, align 8
  %4 = getelementptr inbounds nuw %"class.cv::bioinspired::TemplateBuffer", ptr %3, i32 0, i32 5
  %5 = load i64, ptr %4, align 8, !tbaa !84
  %6 = trunc i64 %5 to i32
  ret i32 %6
}

; Function Attrs: mustprogress nounwind uwtable
define linkonce_odr hidden void @_ZN2cv11bioinspired14TemplateBufferIfE36normalizeGrayOutput_0_maxOutputValueEPfmf(ptr noundef %0, i64 noundef %1, float noundef %2) #9 comdat align 2 {
  %4 = alloca ptr, align 8
  %5 = alloca i64, align 8
  %6 = alloca float, align 4
  %7 = alloca float, align 4
  %8 = alloca float, align 4
  %9 = alloca ptr, align 8
  %10 = alloca i64, align 8
  %11 = alloca float, align 4
  %12 = alloca float, align 4
  %13 = alloca float, align 4
  %14 = alloca i64, align 8
  store ptr %0, ptr %4, align 8, !tbaa !47
  store i64 %1, ptr %5, align 8, !tbaa !39
  store float %2, ptr %6, align 4, !tbaa !48
  call void @llvm.lifetime.start.p0(i64 4, ptr %7) #3
  %15 = load ptr, ptr %4, align 8, !tbaa !47
  %16 = getelementptr inbounds float, ptr %15, i64 0
  %17 = load float, ptr %16, align 4, !tbaa !48
  store float %17, ptr %7, align 4, !tbaa !48
  call void @llvm.lifetime.start.p0(i64 4, ptr %8) #3
  %18 = load ptr, ptr %4, align 8, !tbaa !47
  %19 = getelementptr inbounds float, ptr %18, i64 0
  %20 = load float, ptr %19, align 4, !tbaa !48
  store float %20, ptr %8, align 4, !tbaa !48
  call void @llvm.lifetime.start.p0(i64 8, ptr %9) #3
  %21 = load ptr, ptr %4, align 8, !tbaa !47
  store ptr %21, ptr %9, align 8, !tbaa !47
  call void @llvm.lifetime.start.p0(i64 8, ptr %10) #3
  store i64 0, ptr %10, align 8, !tbaa !39
  br label %22

22:                                               ; preds = %44, %3
  %23 = load i64, ptr %10, align 8, !tbaa !39
  %24 = load i64, ptr %5, align 8, !tbaa !39
  %25 = icmp ult i64 %23, %24
  br i1 %25, label %27, label %26

26:                                               ; preds = %22
  call void @llvm.lifetime.end.p0(i64 8, ptr %10) #3
  br label %47

27:                                               ; preds = %22
  call void @llvm.lifetime.start.p0(i64 4, ptr %11) #3
  %28 = load ptr, ptr %9, align 8, !tbaa !47
  %29 = getelementptr inbounds nuw float, ptr %28, i32 1
  store ptr %29, ptr %9, align 8, !tbaa !47
  %30 = load float, ptr %28, align 4, !tbaa !48
  store float %30, ptr %11, align 4, !tbaa !48
  %31 = load float, ptr %7, align 4, !tbaa !48
  %32 = load float, ptr %11, align 4, !tbaa !48
  %33 = fcmp olt float %31, %32
  br i1 %33, label %34, label %36

34:                                               ; preds = %27
  %35 = load float, ptr %11, align 4, !tbaa !48
  store float %35, ptr %7, align 4, !tbaa !48
  br label %43

36:                                               ; preds = %27
  %37 = load float, ptr %8, align 4, !tbaa !48
  %38 = load float, ptr %11, align 4, !tbaa !48
  %39 = fcmp ogt float %37, %38
  br i1 %39, label %40, label %42

40:                                               ; preds = %36
  %41 = load float, ptr %11, align 4, !tbaa !48
  store float %41, ptr %8, align 4, !tbaa !48
  br label %42

42:                                               ; preds = %40, %36
  br label %43

43:                                               ; preds = %42, %34
  call void @llvm.lifetime.end.p0(i64 4, ptr %11) #3
  br label %44

44:                                               ; preds = %43
  %45 = load i64, ptr %10, align 8, !tbaa !39
  %46 = add i64 %45, 1
  store i64 %46, ptr %10, align 8, !tbaa !39
  br label %22, !llvm.loop !78

47:                                               ; preds = %26
  call void @llvm.lifetime.start.p0(i64 4, ptr %12) #3
  %48 = load float, ptr %6, align 4, !tbaa !48
  %49 = load float, ptr %7, align 4, !tbaa !48
  %50 = load float, ptr %8, align 4, !tbaa !48
  %51 = fsub float %49, %50
  %52 = fdiv float %48, %51
  store float %52, ptr %12, align 4, !tbaa !48
  call void @llvm.lifetime.start.p0(i64 4, ptr %13) #3
  %53 = load float, ptr %8, align 4, !tbaa !48
  %54 = fneg float %53
  %55 = load float, ptr %12, align 4, !tbaa !48
  %56 = fmul float %54, %55
  store float %56, ptr %13, align 4, !tbaa !48
  %57 = load ptr, ptr %4, align 8, !tbaa !47
  store ptr %57, ptr %9, align 8, !tbaa !47
  call void @llvm.lifetime.start.p0(i64 8, ptr %14) #3
  store i64 0, ptr %14, align 8, !tbaa !39
  br label %58

58:                                               ; preds = %70, %47
  %59 = load i64, ptr %14, align 8, !tbaa !39
  %60 = load i64, ptr %5, align 8, !tbaa !39
  %61 = icmp ult i64 %59, %60
  br i1 %61, label %63, label %62

62:                                               ; preds = %58
  call void @llvm.lifetime.end.p0(i64 8, ptr %14) #3
  br label %75

63:                                               ; preds = %58
  %64 = load ptr, ptr %9, align 8, !tbaa !47
  %65 = load float, ptr %64, align 4, !tbaa !48
  %66 = load float, ptr %12, align 4, !tbaa !48
  %67 = load float, ptr %13, align 4, !tbaa !48
  %68 = call float @llvm.fmuladd.f32(float %65, float %66, float %67)
  %69 = load ptr, ptr %9, align 8, !tbaa !47
  store float %68, ptr %69, align 4, !tbaa !48
  br label %70

70:                                               ; preds = %63
  %71 = load i64, ptr %14, align 8, !tbaa !39
  %72 = add i64 %71, 1
  store i64 %72, ptr %14, align 8, !tbaa !39
  %73 = load ptr, ptr %9, align 8, !tbaa !47
  %74 = getelementptr inbounds nuw float, ptr %73, i32 1
  store ptr %74, ptr %9, align 8, !tbaa !47
  br label %58, !llvm.loop !79

75:                                               ; preds = %62
  call void @llvm.lifetime.end.p0(i64 4, ptr %13) #3
  call void @llvm.lifetime.end.p0(i64 4, ptr %12) #3
  call void @llvm.lifetime.end.p0(i64 8, ptr %9) #3
  call void @llvm.lifetime.end.p0(i64 4, ptr %8) #3
  call void @llvm.lifetime.end.p0(i64 4, ptr %7) #3
  ret void
}

; Function Attrs: inlinehint mustprogress uwtable
define linkonce_odr hidden noundef i32 @_ZN2cv11bioinspired17BasicRetinaFilter11getNBpixelsEv(ptr noundef nonnull align 8 dereferenceable(168) %0) #5 comdat align 2 {
  %2 = alloca ptr, align 8
  store ptr %0, ptr %2, align 8, !tbaa !56
  %3 = load ptr, ptr %2, align 8
  %4 = getelementptr inbounds nuw %"class.cv::bioinspired::BasicRetinaFilter", ptr %3, i32 0, i32 0
  %5 = call noundef i32 @_ZN2cv11bioinspired14TemplateBufferIfE11getNBpixelsEv(ptr noundef nonnull align 8 dereferenceable(64) %4)
  ret i32 %5
}

; Function Attrs: inlinehint mustprogress nounwind uwtable
define linkonce_odr hidden noundef ptr @_ZN2cv8get_dataIfEEPKT_RKSt8valarrayIS1_E(ptr noundef nonnull align 8 dereferenceable(16) %0) #6 comdat {
  %2 = alloca ptr, align 8
  store ptr %0, ptr %2, align 8, !tbaa !38
  %3 = load ptr, ptr %2, align 8, !tbaa !38
  %4 = call noundef nonnull align 4 dereferenceable(4) ptr @_ZNSt8valarrayIfEixEm(ptr noundef nonnull align 8 dereferenceable(16) %3, i64 noundef 0) #3
  ret ptr %4
}

; Function Attrs: inlinehint mustprogress nounwind uwtable
define linkonce_odr hidden noundef nonnull align 8 dereferenceable(16) ptr @_ZNK2cv11bioinspired17BasicRetinaFilter9getOutputEv(ptr noundef nonnull align 8 dereferenceable(168) %0) #6 comdat align 2 {
  %2 = alloca ptr, align 8
  store ptr %0, ptr %2, align 8, !tbaa !56
  %3 = load ptr, ptr %2, align 8
  %4 = getelementptr inbounds nuw %"class.cv::bioinspired::BasicRetinaFilter", ptr %3, i32 0, i32 0
  %5 = getelementptr inbounds i8, ptr %4, i64 8
  ret ptr %5
}

; Function Attrs: inlinehint mustprogress nounwind uwtable
define linkonce_odr hidden noundef nonnull align 4 dereferenceable(4) ptr @_ZNSt8valarrayIfEixEm(ptr noundef nonnull align 8 dereferenceable(16) %0, i64 noundef %1) #6 comdat align 2 {
  %3 = alloca ptr, align 8
  %4 = alloca i64, align 8
  store ptr %0, ptr %3, align 8, !tbaa !38
  store i64 %1, ptr %4, align 8, !tbaa !39
  %5 = load ptr, ptr %3, align 8
  %6 = getelementptr inbounds nuw %"class.std::valarray", ptr %5, i32 0, i32 1
  %7 = load ptr, ptr %6, align 8, !tbaa !41
  %8 = load i64, ptr %4, align 8, !tbaa !39
  %9 = getelementptr inbounds nuw float, ptr %7, i64 %8
  ret ptr %9
}

; Function Attrs: mustprogress uwtable
define hidden void @_ZN2cv11bioinspired12RetinaFilter31_processRetinaParvoMagnoMappingEv(ptr noundef nonnull align 8 dereferenceable(1217) %0) #4 align 2 {
  %2 = alloca ptr, align 8
  %3 = alloca ptr, align 8
  %4 = alloca ptr, align 8
  %5 = alloca ptr, align 8
  %6 = alloca ptr, align 8
  %7 = alloca i32, align 4
  %8 = alloca float, align 4
  store ptr %0, ptr %2, align 8, !tbaa !3
  %9 = load ptr, ptr %2, align 8
  call void @llvm.lifetime.start.p0(i64 8, ptr %3) #3
  %10 = getelementptr inbounds nuw %"class.cv::bioinspired::RetinaFilter", ptr %9, i32 0, i32 6
  %11 = call noundef nonnull align 4 dereferenceable(4) ptr @_ZNSt8valarrayIfEixEm(ptr noundef nonnull align 8 dereferenceable(16) %10, i64 noundef 0) #3
  store ptr %11, ptr %3, align 8, !tbaa !47
  call void @llvm.lifetime.start.p0(i64 8, ptr %4) #3
  %12 = getelementptr inbounds nuw %"class.cv::bioinspired::RetinaFilter", ptr %9, i32 0, i32 9
  %13 = getelementptr inbounds i8, ptr %12, i64 8
  %14 = call noundef nonnull align 8 dereferenceable(16) ptr @_ZNK2cv11bioinspired17BasicRetinaFilter9getOutputEv(ptr noundef nonnull align 8 dereferenceable(168) %13)
  %15 = call noundef ptr @_ZN2cv8get_dataIfEEPKT_RKSt8valarrayIS1_E(ptr noundef nonnull align 8 dereferenceable(16) %14)
  store ptr %15, ptr %4, align 8, !tbaa !47
  call void @llvm.lifetime.start.p0(i64 8, ptr %5) #3
  %16 = getelementptr inbounds nuw %"class.cv::bioinspired::RetinaFilter", ptr %9, i32 0, i32 10
  %17 = getelementptr inbounds i8, ptr %16, i64 8
  %18 = call noundef nonnull align 8 dereferenceable(16) ptr @_ZNK2cv11bioinspired17BasicRetinaFilter9getOutputEv(ptr noundef nonnull align 8 dereferenceable(168) %17)
  %19 = call noundef ptr @_ZN2cv8get_dataIfEEPKT_RKSt8valarrayIS1_E(ptr noundef nonnull align 8 dereferenceable(16) %18)
  store ptr %19, ptr %5, align 8, !tbaa !47
  call void @llvm.lifetime.start.p0(i64 8, ptr %6) #3
  %20 = getelementptr inbounds nuw %"class.cv::bioinspired::RetinaFilter", ptr %9, i32 0, i32 7
  %21 = call noundef nonnull align 4 dereferenceable(4) ptr @_ZNSt8valarrayIfEixEm(ptr noundef nonnull align 8 dereferenceable(16) %20, i64 noundef 0) #3
  store ptr %21, ptr %6, align 8, !tbaa !47
  call void @llvm.lifetime.start.p0(i64 4, ptr %7) #3
  store i32 0, ptr %7, align 4, !tbaa !8
  br label %22

22:                                               ; preds = %45, %1
  %23 = load i32, ptr %7, align 4, !tbaa !8
  %24 = getelementptr inbounds nuw %"class.cv::bioinspired::RetinaFilter", ptr %9, i32 0, i32 8
  %25 = call noundef i32 @_ZN2cv11bioinspired17BasicRetinaFilter11getNBpixelsEv(ptr noundef nonnull align 8 dereferenceable(168) %24)
  %26 = icmp ult i32 %23, %25
  br i1 %26, label %28, label %27

27:                                               ; preds = %22
  call void @llvm.lifetime.end.p0(i64 4, ptr %7) #3
  br label %50

28:                                               ; preds = %22
  call void @llvm.lifetime.start.p0(i64 4, ptr %8) #3
  %29 = load ptr, ptr %4, align 8, !tbaa !47
  %30 = getelementptr inbounds nuw float, ptr %29, i32 1
  store ptr %30, ptr %4, align 8, !tbaa !47
  %31 = load float, ptr %29, align 4, !tbaa !48
  %32 = load ptr, ptr %6, align 8, !tbaa !47
  %33 = load float, ptr %32, align 4, !tbaa !48
  %34 = load ptr, ptr %5, align 8, !tbaa !47
  %35 = getelementptr inbounds nuw float, ptr %34, i32 1
  store ptr %35, ptr %5, align 8, !tbaa !47
  %36 = load float, ptr %34, align 4, !tbaa !48
  %37 = load ptr, ptr %6, align 8, !tbaa !47
  %38 = getelementptr inbounds float, ptr %37, i64 1
  %39 = load float, ptr %38, align 4, !tbaa !48
  %40 = fmul float %36, %39
  %41 = call float @llvm.fmuladd.f32(float %31, float %33, float %40)
  store float %41, ptr %8, align 4, !tbaa !48
  %42 = load float, ptr %8, align 4, !tbaa !48
  %43 = load ptr, ptr %3, align 8, !tbaa !47
  %44 = getelementptr inbounds nuw float, ptr %43, i32 1
  store ptr %44, ptr %3, align 8, !tbaa !47
  store float %42, ptr %43, align 4, !tbaa !48
  call void @llvm.lifetime.end.p0(i64 4, ptr %8) #3
  br label %45

45:                                               ; preds = %28
  %46 = load i32, ptr %7, align 4, !tbaa !8
  %47 = add i32 %46, 1
  store i32 %47, ptr %7, align 4, !tbaa !8
  %48 = load ptr, ptr %6, align 8, !tbaa !47
  %49 = getelementptr inbounds float, ptr %48, i64 2
  store ptr %49, ptr %6, align 8, !tbaa !47
  br label %22, !llvm.loop !76

50:                                               ; preds = %27
  %51 = getelementptr inbounds nuw %"class.cv::bioinspired::RetinaFilter", ptr %9, i32 0, i32 6
  %52 = call noundef nonnull align 4 dereferenceable(4) ptr @_ZNSt8valarrayIfEixEm(ptr noundef nonnull align 8 dereferenceable(16) %51, i64 noundef 0) #3
  %53 = getelementptr inbounds nuw %"class.cv::bioinspired::RetinaFilter", ptr %9, i32 0, i32 8
  %54 = call noundef i32 @_ZN2cv11bioinspired17BasicRetinaFilter11getNBpixelsEv(ptr noundef nonnull align 8 dereferenceable(168) %53)
  %55 = zext i32 %54 to i64
  call void @_ZN2cv11bioinspired14TemplateBufferIfE36normalizeGrayOutput_0_maxOutputValueEPfmf(ptr noundef %52, i64 noundef %55, float noundef 2.550000e+02)
  call void @llvm.lifetime.end.p0(i64 8, ptr %6) #3
  call void @llvm.lifetime.end.p0(i64 8, ptr %5) #3
  call void @llvm.lifetime.end.p0(i64 8, ptr %4) #3
  call void @llvm.lifetime.end.p0(i64 8, ptr %3) #3
  ret void
}