; Function Attrs: mustprogress nofree norecurse nosync nounwind memory(readwrite, inaccessiblemem: none) uwtable
define hidden void @_ZN2cv11bioinspired12RetinaFilter31_processRetinaParvoMagnoMappingEv(ptr noundef nonnull readonly align 8 captures(none) dereferenceable(1217) %0) local_unnamed_addr #11 align 2 {
  %2 = getelementptr inbounds nuw i8, ptr %0, i64 24
  %3 = load ptr, ptr %2, align 8, !tbaa !10
  %4 = getelementptr inbounds nuw i8, ptr %0, i64 96
  %5 = load i64, ptr %4, align 8, !tbaa !68
  %6 = trunc i64 %5 to i32
  %.not = icmp eq i32 %6, 0
  br i1 %.not, label %._crit_edge, label %.lr.ph.preheader

.lr.ph.preheader:                                 ; preds = %1
  %7 = getelementptr inbounds nuw i8, ptr %0, i64 40
  %8 = load ptr, ptr %7, align 8, !tbaa !10
  %9 = getelementptr inbounds nuw i8, ptr %0, i64 544
  %10 = load ptr, ptr %9, align 8, !tbaa !10
  %11 = getelementptr inbounds nuw i8, ptr %0, i64 240
  %12 = load ptr, ptr %11, align 8, !tbaa !10
  br label %.lr.ph

._crit_edge:                                      ; preds = %.lr.ph, %1
  %13 = and i64 %5, 4294967295
  %.not.i = icmp eq i64 %13, 0
  br i1 %.not.i, label %_ZN2cv11bioinspired14TemplateBufferIfE36normalizeGrayOutput_0_maxOutputValueEPfmf.exit, label %.lr.ph.i.preheader

.lr.ph.i.preheader:                               ; preds = %._crit_edge
  %14 = load float, ptr %3, align 4, !tbaa !61
  br label %.lr.ph.i

.lr.ph43.preheader.i:                             ; preds = %25
  %15 = fsub float %.1.i, %.128.i
  %16 = fdiv float 2.550000e+02, %15
  %17 = fneg float %.128.i
  %18 = fmul float %16, %17
  br label %.lr.ph43.i

.lr.ph.i:                                         ; preds = %.lr.ph.i.preheader, %25
  %.02638.i = phi float [ %.1.i, %25 ], [ %14, %.lr.ph.i.preheader ]
  %.02737.i = phi float [ %.128.i, %25 ], [ %14, %.lr.ph.i.preheader ]
  %.02936.i = phi ptr [ %19, %25 ], [ %3, %.lr.ph.i.preheader ]
  %.03135.i = phi i64 [ %26, %25 ], [ 0, %.lr.ph.i.preheader ]
  %19 = getelementptr inbounds nuw i8, ptr %.02936.i, i64 4
  %20 = load float, ptr %.02936.i, align 4, !tbaa !61
  %21 = fcmp olt float %.02638.i, %20
  br i1 %21, label %25, label %22

22:                                               ; preds = %.lr.ph.i
  %23 = fcmp ogt float %.02737.i, %20
  br i1 %23, label %24, label %25

24:                                               ; preds = %22
  br label %25

25:                                               ; preds = %24, %22, %.lr.ph.i
  %.128.i = phi float [ %20, %24 ], [ %.02737.i, %22 ], [ %.02737.i, %.lr.ph.i ]
  %.1.i = phi float [ %.02638.i, %24 ], [ %.02638.i, %22 ], [ %20, %.lr.ph.i ]
  %26 = add nuw nsw i64 %.03135.i, 1
  %exitcond.not.i = icmp eq i64 %26, %13
  br i1 %exitcond.not.i, label %.lr.ph43.preheader.i, label %.lr.ph.i, !llvm.loop !99

.lr.ph43.i:                                       ; preds = %.lr.ph43.i, %.lr.ph43.preheader.i
  %.041.i = phi i64 [ %29, %.lr.ph43.i ], [ 0, %.lr.ph43.preheader.i ]
  %.13040.i = phi ptr [ %30, %.lr.ph43.i ], [ %3, %.lr.ph43.preheader.i ]
  %27 = load float, ptr %.13040.i, align 4, !tbaa !61
  %28 = tail call float @llvm.fmuladd.f32(float %27, float %16, float %18)
  store float %28, ptr %.13040.i, align 4, !tbaa !61
  %29 = add nuw nsw i64 %.041.i, 1
  %30 = getelementptr inbounds nuw i8, ptr %.13040.i, i64 4
  %exitcond46.not.i = icmp eq i64 %29, %13
  br i1 %exitcond46.not.i, label %_ZN2cv11bioinspired14TemplateBufferIfE36normalizeGrayOutput_0_maxOutputValueEPfmf.exit, label %.lr.ph43.i, !llvm.loop !100

_ZN2cv11bioinspired14TemplateBufferIfE36normalizeGrayOutput_0_maxOutputValueEPfmf.exit: ; preds = %.lr.ph43.i, %._crit_edge
  ret void

.lr.ph:                                           ; preds = %.lr.ph.preheader, %.lr.ph
  %.017 = phi ptr [ %40, %.lr.ph ], [ %3, %.lr.ph.preheader ]
  %.0916 = phi i32 [ %41, %.lr.ph ], [ 0, %.lr.ph.preheader ]
  %.01015 = phi ptr [ %42, %.lr.ph ], [ %8, %.lr.ph.preheader ]
  %.01114 = phi ptr [ %34, %.lr.ph ], [ %10, %.lr.ph.preheader ]
  %.01213 = phi ptr [ %31, %.lr.ph ], [ %12, %.lr.ph.preheader ]
  %31 = getelementptr inbounds nuw i8, ptr %.01213, i64 4
  %32 = load float, ptr %.01213, align 4, !tbaa !61
  %33 = load float, ptr %.01015, align 4, !tbaa !61
  %34 = getelementptr inbounds nuw i8, ptr %.01114, i64 4
  %35 = load float, ptr %.01114, align 4, !tbaa !61
  %36 = getelementptr inbounds nuw i8, ptr %.01015, i64 4
  %37 = load float, ptr %36, align 4, !tbaa !61
  %38 = fmul float %35, %37
  %39 = tail call float @llvm.fmuladd.f32(float %32, float %33, float %38)
  %40 = getelementptr inbounds nuw i8, ptr %.017, i64 4
  store float %39, ptr %.017, align 4, !tbaa !61
  %41 = add nuw i32 %.0916, 1
  %42 = getelementptr inbounds nuw i8, ptr %.01015, i64 8
  %exitcond.not = icmp eq i32 %41, %6
  br i1 %exitcond.not, label %._crit_edge, label %.lr.ph, !llvm.loop !104
}